
cifra_de_cesar.elf:     file format elf32-littlearm


Disassembly of section .text:

00080000 <_start>:
   80000:	e3a00013 	mov	r0, #19
   80004:	e129f000 	msr	CPSR_fc, r0
   80008:	e59fd020 	ldr	sp, [pc, #32]	; 80030 <stop+0x4>
   8000c:	e3a00000 	mov	r0, #0
   80010:	e59f101c 	ldr	r1, [pc, #28]	; 80034 <stop+0x8>
   80014:	e59f201c 	ldr	r2, [pc, #28]	; 80038 <stop+0xc>

00080018 <loop>:
   80018:	e1510002 	cmp	r1, r2
   8001c:	aa000001 	bge	80028 <cont>
   80020:	e4810004 	str	r0, [r1], #4
   80024:	eafffffb 	b	80018 <loop>

00080028 <cont>:
   80028:	eb000075 	bl	80204 <main>

0008002c <stop>:
   8002c:	eafffffe 	b	8002c <stop>
   80030:	000812b0 	.word	0x000812b0
   80034:	000802ab 	.word	0x000802ab
   80038:	000802ab 	.word	0x000802ab

0008003c <uart_putc>:
   8003c:	e52db004 	push	{fp}		; (str fp, [sp, #-4]!)
   80040:	e28db000 	add	fp, sp, #0
   80044:	e24dd00c 	sub	sp, sp, #12
   80048:	e1a03000 	mov	r3, r0
   8004c:	e54b3005 	strb	r3, [fp, #-5]
   80050:	e3a02409 	mov	r2, #150994944	; 0x9000000
   80054:	e55b3005 	ldrb	r3, [fp, #-5]
   80058:	e5823000 	str	r3, [r2]
   8005c:	e320f000 	nop	{0}
   80060:	e28bd000 	add	sp, fp, #0
   80064:	e49db004 	pop	{fp}		; (ldr fp, [sp], #4)
   80068:	e12fff1e 	bx	lr

0008006c <uart_puts>:
   8006c:	e52db008 	str	fp, [sp, #-8]!
   80070:	e58de004 	str	lr, [sp, #4]
   80074:	e28db004 	add	fp, sp, #4
   80078:	e24dd008 	sub	sp, sp, #8
   8007c:	e50b0008 	str	r0, [fp, #-8]
   80080:	ea000005 	b	8009c <uart_puts+0x30>
   80084:	e51b3008 	ldr	r3, [fp, #-8]
   80088:	e2832001 	add	r2, r3, #1
   8008c:	e50b2008 	str	r2, [fp, #-8]
   80090:	e5d33000 	ldrb	r3, [r3]
   80094:	e1a00003 	mov	r0, r3
   80098:	ebffffe7 	bl	8003c <uart_putc>
   8009c:	e51b3008 	ldr	r3, [fp, #-8]
   800a0:	e5d33000 	ldrb	r3, [r3]
   800a4:	e3530000 	cmp	r3, #0
   800a8:	1afffff5 	bne	80084 <uart_puts+0x18>
   800ac:	e320f000 	nop	{0}
   800b0:	e320f000 	nop	{0}
   800b4:	e24bd004 	sub	sp, fp, #4
   800b8:	e59db000 	ldr	fp, [sp]
   800bc:	e28dd004 	add	sp, sp, #4
   800c0:	e49df004 	pop	{pc}		; (ldr pc, [sp], #4)

000800c4 <cifra_cesar>:
   800c4:	e52db004 	push	{fp}		; (str fp, [sp, #-4]!)
   800c8:	e28db000 	add	fp, sp, #0
   800cc:	e24dd014 	sub	sp, sp, #20
   800d0:	e50b0010 	str	r0, [fp, #-16]
   800d4:	e50b1014 	str	r1, [fp, #-20]	; 0xffffffec
   800d8:	e3a03000 	mov	r3, #0
   800dc:	e50b3008 	str	r3, [fp, #-8]
   800e0:	ea00003c 	b	801d8 <cifra_cesar+0x114>
   800e4:	e51b3008 	ldr	r3, [fp, #-8]
   800e8:	e51b2010 	ldr	r2, [fp, #-16]
   800ec:	e0823003 	add	r3, r2, r3
   800f0:	e5d33000 	ldrb	r3, [r3]
   800f4:	e54b3009 	strb	r3, [fp, #-9]
   800f8:	e55b3009 	ldrb	r3, [fp, #-9]
   800fc:	e3530040 	cmp	r3, #64	; 0x40
   80100:	9a000017 	bls	80164 <cifra_cesar+0xa0>
   80104:	e55b3009 	ldrb	r3, [fp, #-9]
   80108:	e353005a 	cmp	r3, #90	; 0x5a
   8010c:	8a000014 	bhi	80164 <cifra_cesar+0xa0>
   80110:	e55b3009 	ldrb	r3, [fp, #-9]
   80114:	e2432041 	sub	r2, r3, #65	; 0x41
   80118:	e51b3014 	ldr	r3, [fp, #-20]	; 0xffffffec
   8011c:	e0823003 	add	r3, r2, r3
   80120:	e30e2c4f 	movw	r2, #60495	; 0xec4f
   80124:	e3442ec4 	movt	r2, #20164	; 0x4ec4
   80128:	e0c21392 	smull	r1, r2, r2, r3
   8012c:	e1a011c2 	asr	r1, r2, #3
   80130:	e1a02fc3 	asr	r2, r3, #31
   80134:	e0412002 	sub	r2, r1, r2
   80138:	e3a0101a 	mov	r1, #26
   8013c:	e0020291 	mul	r2, r1, r2
   80140:	e0432002 	sub	r2, r3, r2
   80144:	e6ef2072 	uxtb	r2, r2
   80148:	e51b3008 	ldr	r3, [fp, #-8]
   8014c:	e51b1010 	ldr	r1, [fp, #-16]
   80150:	e0813003 	add	r3, r1, r3
   80154:	e2822041 	add	r2, r2, #65	; 0x41
   80158:	e6ef2072 	uxtb	r2, r2
   8015c:	e5c32000 	strb	r2, [r3]
   80160:	ea000019 	b	801cc <cifra_cesar+0x108>
   80164:	e55b3009 	ldrb	r3, [fp, #-9]
   80168:	e3530060 	cmp	r3, #96	; 0x60
   8016c:	9a000016 	bls	801cc <cifra_cesar+0x108>
   80170:	e55b3009 	ldrb	r3, [fp, #-9]
   80174:	e353007a 	cmp	r3, #122	; 0x7a
   80178:	8a000013 	bhi	801cc <cifra_cesar+0x108>
   8017c:	e55b3009 	ldrb	r3, [fp, #-9]
   80180:	e2432061 	sub	r2, r3, #97	; 0x61
   80184:	e51b3014 	ldr	r3, [fp, #-20]	; 0xffffffec
   80188:	e0823003 	add	r3, r2, r3
   8018c:	e30e2c4f 	movw	r2, #60495	; 0xec4f
   80190:	e3442ec4 	movt	r2, #20164	; 0x4ec4
   80194:	e0c21392 	smull	r1, r2, r2, r3
   80198:	e1a011c2 	asr	r1, r2, #3
   8019c:	e1a02fc3 	asr	r2, r3, #31
   801a0:	e0412002 	sub	r2, r1, r2
   801a4:	e3a0101a 	mov	r1, #26
   801a8:	e0020291 	mul	r2, r1, r2
   801ac:	e0432002 	sub	r2, r3, r2
   801b0:	e6ef2072 	uxtb	r2, r2
   801b4:	e51b3008 	ldr	r3, [fp, #-8]
   801b8:	e51b1010 	ldr	r1, [fp, #-16]
   801bc:	e0813003 	add	r3, r1, r3
   801c0:	e2822061 	add	r2, r2, #97	; 0x61
   801c4:	e6ef2072 	uxtb	r2, r2
   801c8:	e5c32000 	strb	r2, [r3]
   801cc:	e51b3008 	ldr	r3, [fp, #-8]
   801d0:	e2833001 	add	r3, r3, #1
   801d4:	e50b3008 	str	r3, [fp, #-8]
   801d8:	e51b3008 	ldr	r3, [fp, #-8]
   801dc:	e51b2010 	ldr	r2, [fp, #-16]
   801e0:	e0823003 	add	r3, r2, r3
   801e4:	e5d33000 	ldrb	r3, [r3]
   801e8:	e3530000 	cmp	r3, #0
   801ec:	1affffbc 	bne	800e4 <cifra_cesar+0x20>
   801f0:	e320f000 	nop	{0}
   801f4:	e320f000 	nop	{0}
   801f8:	e28bd000 	add	sp, fp, #0
   801fc:	e49db004 	pop	{fp}		; (ldr fp, [sp], #4)
   80200:	e12fff1e 	bx	lr

00080204 <main>:
   80204:	e52db008 	str	fp, [sp, #-8]!
   80208:	e58de004 	str	lr, [sp, #4]
   8020c:	e28db004 	add	fp, sp, #4
   80210:	e24dd010 	sub	sp, sp, #16
   80214:	e30022a0 	movw	r2, #672	; 0x2a0
   80218:	e3402008 	movt	r2, #8
   8021c:	e24b3010 	sub	r3, fp, #16
   80220:	e1c200d0 	ldrd	r0, [r2]
   80224:	e1c300f0 	strd	r0, [r3]
   80228:	e1d210b8 	ldrh	r1, [r2, #8]
   8022c:	e1c310b8 	strh	r1, [r3, #8]
   80230:	e5d2200a 	ldrb	r2, [r2, #10]
   80234:	e5c3200a 	strb	r2, [r3, #10]
   80238:	e300028c 	movw	r0, #652	; 0x28c
   8023c:	e3400008 	movt	r0, #8
   80240:	ebffff89 	bl	8006c <uart_puts>
   80244:	e24b3010 	sub	r3, fp, #16
   80248:	e1a00003 	mov	r0, r3
   8024c:	ebffff86 	bl	8006c <uart_puts>
   80250:	e3a0000a 	mov	r0, #10
   80254:	ebffff78 	bl	8003c <uart_putc>
   80258:	e24b3010 	sub	r3, fp, #16
   8025c:	e3a01003 	mov	r1, #3
   80260:	e1a00003 	mov	r0, r3
   80264:	ebffff96 	bl	800c4 <cifra_cesar>
   80268:	e3000294 	movw	r0, #660	; 0x294
   8026c:	e3400008 	movt	r0, #8
   80270:	ebffff7d 	bl	8006c <uart_puts>
   80274:	e24b3010 	sub	r3, fp, #16
   80278:	e1a00003 	mov	r0, r3
   8027c:	ebffff7a 	bl	8006c <uart_puts>
   80280:	e3a0000a 	mov	r0, #10
   80284:	ebffff6c 	bl	8003c <uart_putc>
   80288:	eafffffe 	b	80288 <main+0x84>
